; Function Attrs: nounwind uwtable
define noalias noundef nonnull ptr @l___private_Lean_Meta_Tactic_Grind_EMatchTheorem_0__Lean_Meta_Grind_isPatternFnCandidate(ptr noundef %0, ptr noundef readonly captures(none) %1, ptr readnone captures(none) %2, ptr readnone captures(none) %3, ptr readnone captures(none) %4, ptr readnone captures(none) %5, ptr readnone captures(none) %6, ptr readnone captures(none) %7, ptr noundef %8) local_unnamed_addr #1 {
  %10 = ptrtoint ptr %0 to i64
  %11 = and i64 %10, 1
  %.not.i = icmp eq i64 %11, 0
  br i1 %.not.i, label %15, label %12

12:                                               ; preds = %9
  %13 = lshr i64 %10, 1
  %14 = trunc i64 %13 to i32
  br label %lean_obj_tag.exit

15:                                               ; preds = %9
  %16 = getelementptr i8, ptr %0, i64 4
  %.val.i = load i32, ptr %16, align 4
  %17 = lshr i32 %.val.i, 24
  br label %lean_obj_tag.exit

lean_obj_tag.exit:                                ; preds = %12, %15
  %.0.i = phi i32 [ %14, %12 ], [ %17, %15 ]
  switch i32 %.0.i, label %41 [
    i32 1, label %18
    i32 4, label %29
  ]

18:                                               ; preds = %lean_obj_tag.exit
  %19 = getelementptr inbounds nuw i8, ptr %1, i64 16
  %20 = load ptr, ptr %19, align 8, !tbaa !9
  %21 = tail call zeroext i8 @l_Array_contains___at_Lean_Meta_arrowDomainsN___spec__2(ptr noundef %20, ptr noundef %0) #9
  %22 = icmp eq i8 %21, 0
  tail call void @lean_inc_heartbeat() #9
  %23 = tail call noalias ptr @mi_malloc_small(i64 noundef 24) #9
  %24 = icmp eq ptr %23, null
  br i1 %22, label %25, label %27

25:                                               ; preds = %18
  br i1 %24, label %26, label %lean_alloc_ctor.exit

26:                                               ; preds = %25
  tail call void @lean_internal_panic_out_of_memory() #10
  unreachable

27:                                               ; preds = %18
  br i1 %24, label %28, label %lean_alloc_ctor.exit

28:                                               ; preds = %27
  tail call void @lean_internal_panic_out_of_memory() #10
  unreachable

29:                                               ; preds = %lean_obj_tag.exit
  %30 = getelementptr inbounds nuw i8, ptr %0, i64 8
  %31 = load ptr, ptr %30, align 8, !tbaa !9
  %32 = load ptr, ptr @l___private_Lean_Meta_Tactic_Grind_EMatchTheorem_0__Lean_Meta_Grind_forbiddenDeclNames, align 8, !tbaa !9
  %33 = tail call zeroext i8 @l_Array_contains___at_Lean_registerInternalExceptionId___spec__1(ptr noundef %32, ptr noundef %31) #9
  %34 = icmp eq i8 %33, 0
  tail call void @lean_inc_heartbeat() #9
  %35 = tail call noalias ptr @mi_malloc_small(i64 noundef 24) #9
  %36 = icmp eq ptr %35, null
  br i1 %34, label %37, label %39

37:                                               ; preds = %29
  br i1 %36, label %38, label %lean_alloc_ctor.exit

38:                                               ; preds = %37
  tail call void @lean_internal_panic_out_of_memory() #10
  unreachable

39:                                               ; preds = %29
  br i1 %36, label %40, label %lean_alloc_ctor.exit

40:                                               ; preds = %39
  tail call void @lean_internal_panic_out_of_memory() #10
  unreachable

41:                                               ; preds = %lean_obj_tag.exit
  tail call void @lean_inc_heartbeat() #9
  %42 = tail call noalias ptr @mi_malloc_small(i64 noundef 24) #9
  %43 = icmp eq ptr %42, null
  br i1 %43, label %44, label %lean_alloc_ctor.exit

44:                                               ; preds = %41
  tail call void @lean_internal_panic_out_of_memory() #10
  unreachable

lean_alloc_ctor.exit:                             ; preds = %41, %39, %37, %27, %25
  %.sink48 = phi ptr [ %23, %25 ], [ %23, %27 ], [ %35, %37 ], [ %35, %39 ], [ %42, %41 ]
  %.sink = phi ptr [ inttoptr (i64 3 to ptr), %25 ], [ inttoptr (i64 1 to ptr), %27 ], [ inttoptr (i64 3 to ptr), %37 ], [ inttoptr (i64 1 to ptr), %39 ], [ inttoptr (i64 1 to ptr), %41 ]
  %45 = getelementptr inbounds nuw i8, ptr %.sink48, i64 4
  store i32 1, ptr %.sink48, align 4, !tbaa !4
  store i32 131096, ptr %45, align 4
  %46 = getelementptr inbounds nuw i8, ptr %.sink48, i64 8
  store ptr %.sink, ptr %46, align 8, !tbaa !9
  %47 = getelementptr inbounds nuw i8, ptr %.sink48, i64 16
  store ptr %8, ptr %47, align 8, !tbaa !9
  ret ptr %.sink48
}